; Function Attrs: mustprogress uwtable
define hidden noundef zeroext i1 @_ZNK4cvc58internal7Minisat6Solver9needProofEv(ptr noundef nonnull align 8 dereferenceable(850) %0) local_unnamed_addr #5 align 2 {
  %2 = getelementptr inbounds nuw i8, ptr %0, i64 48
  %3 = load ptr, ptr %2, align 8, !tbaa !87
  %.not = icmp eq ptr %3, null
  br i1 %.not, label %11, label %4

4:                                                ; preds = %1
  %5 = tail call noundef nonnull align 8 dereferenceable(408) ptr @_ZNK4cvc58internal6EnvObj7optionsEv(ptr noundef nonnull align 8 dereferenceable(16) %0)
  %6 = getelementptr inbounds nuw i8, ptr %5, i64 368
  %7 = load ptr, ptr %6, align 8, !tbaa !136
  %8 = getelementptr inbounds nuw i8, ptr %7, i64 120
  %9 = load i32, ptr %8, align 8, !tbaa !332
  %10 = icmp ne i32 %9, 1
  br label %11

11:                                               ; preds = %4, %1
  %12 = phi i1 [ false, %1 ], [ %10, %4 ]
  ret i1 %12
}